target datalayout = "e-m:e-p270:32:32-p271:32:32-p272:64:64-i64:64-i128:128-f80:128-n8:16:32:64-S128"
target triple = "x86_64-pc-linux-gnu"

%struct.hb_extents_t = type { float, float, float, float }
%struct.hb_paint_extents_context_t = type { %struct.hb_vector_t, %struct.hb_vector_t.0, %struct.hb_vector_t.0 }
%struct.hb_vector_t = type { i32, i32, ptr }
%struct.hb_vector_t.0 = type { i32, i32, ptr }
%struct.hb_bounds_t = type { i32, %struct.hb_extents_t }

@_hb_NullPool = external constant [80 x i64], align 16

; Function Attrs: mustprogress nounwind uwtable
define linkonce_odr hidden noundef nonnull align 4 dereferenceable(20) ptr @_ZN4NullI11hb_bounds_tE8get_nullEv() #1 comdat align 2 {
  ret ptr @_hb_NullPool
}

; Function Attrs: mustprogress uwtable
define linkonce_odr hidden noundef nonnull align 4 dereferenceable(20) ptr @_ZN10NullHelperI11hb_bounds_tE8get_nullEv() #0 comdat align 2 {
  %1 = call noundef nonnull align 4 dereferenceable(20) ptr @_ZN4NullI11hb_bounds_tE8get_nullEv()
  ret ptr %1
}

; Function Attrs: mustprogress uwtable
define linkonce_odr hidden void @_ZN11hb_vector_tI11hb_bounds_tLb0EE3popEv(ptr dead_on_unwind noalias writable sret(%struct.hb_bounds_t) align 4 %0, ptr noundef nonnull align 8 dereferenceable(16) %1) #0 comdat align 2 {
  %3 = alloca ptr, align 8
  store ptr %1, ptr %3, align 8
  %4 = load ptr, ptr %3, align 8
  %5 = getelementptr inbounds %struct.hb_vector_t.0, ptr %4, i32 0, i32 1
  %6 = load i32, ptr %5, align 4
  %7 = icmp ne i32 %6, 0
  br i1 %7, label %10, label %8

8:                                                ; preds = %2
  %9 = call noundef nonnull align 4 dereferenceable(20) ptr @_ZN10NullHelperI11hb_bounds_tE8get_nullEv()
  call void @llvm.memcpy.p0.p0.i64(ptr align 4 %0, ptr align 4 %9, i64 20, i1 false)
  br label %21

10:                                               ; preds = %2
  %11 = getelementptr inbounds %struct.hb_vector_t.0, ptr %4, i32 0, i32 2
  %12 = load ptr, ptr %11, align 8
  %13 = getelementptr inbounds %struct.hb_vector_t.0, ptr %4, i32 0, i32 1
  %14 = load i32, ptr %13, align 4
  %15 = sub i32 %14, 1
  %16 = zext i32 %15 to i64
  %17 = getelementptr inbounds %struct.hb_bounds_t, ptr %12, i64 %16
  call void @llvm.memcpy.p0.p0.i64(ptr align 4 %0, ptr align 4 %17, i64 20, i1 false)
  %18 = getelementptr inbounds %struct.hb_vector_t.0, ptr %4, i32 0, i32 1
  %19 = load i32, ptr %18, align 4
  %20 = add i32 %19, -1
  store i32 %20, ptr %18, align 4
  br label %21

21:                                               ; preds = %10, %8
  ret void
}

; Function Attrs: mustprogress uwtable
define linkonce_odr hidden void @_ZN26hb_paint_extents_context_t8pop_clipEv(ptr noundef nonnull align 8 dereferenceable(48) %0) #0 comdat align 2 {
  %2 = alloca ptr, align 8
  %3 = alloca %struct.hb_bounds_t, align 4
  store ptr %0, ptr %2, align 8
  %4 = load ptr, ptr %2, align 8
  %5 = getelementptr inbounds %struct.hb_paint_extents_context_t, ptr %4, i32 0, i32 1
  call void @_ZN11hb_vector_tI11hb_bounds_tLb0EE3popEv(ptr dead_on_unwind writable sret(%struct.hb_bounds_t) align 4 %3, ptr noundef nonnull align 8 dereferenceable(16) %5)
  ret void
}

; Function Attrs: mustprogress uwtable
define internal void @_ZL25hb_paint_extents_pop_clipP16hb_paint_funcs_tPvS1_(ptr noundef %0, ptr noundef %1, ptr noundef %2) #0 {
  %4 = alloca ptr, align 8
  %5 = alloca ptr, align 8
  %6 = alloca ptr, align 8
  %7 = alloca ptr, align 8
  store ptr %0, ptr %4, align 8
  store ptr %1, ptr %5, align 8
  store ptr %2, ptr %6, align 8
  %8 = load ptr, ptr %5, align 8
  store ptr %8, ptr %7, align 8
  %9 = load ptr, ptr %7, align 8
  call void @_ZN26hb_paint_extents_context_t8pop_clipEv(ptr noundef nonnull align 8 dereferenceable(48) %9)
  ret void
}