; Function Attrs: mustprogress nofree norecurse nosync nounwind willreturn memory(argmem: readwrite) uwtable
define internal void @_ZL25hb_paint_extents_pop_clipP16hb_paint_funcs_tPvS1_(ptr nocapture readnone %0, ptr nocapture noundef %1, ptr nocapture readnone %2) #2 {
  %4 = getelementptr inbounds i8, ptr %1, i64 20
  %5 = load i32, ptr %4, align 4, !noalias !9
  %.not.i.i = icmp eq i32 %5, 0
  br i1 %.not.i.i, label %_ZN26hb_paint_extents_context_t8pop_clipEv.exit, label %6

6:                                                ; preds = %3
  %7 = add i32 %5, -1
  store i32 %7, ptr %4, align 4, !noalias !9
  br label %_ZN26hb_paint_extents_context_t8pop_clipEv.exit

_ZN26hb_paint_extents_context_t8pop_clipEv.exit:  ; preds = %3, %6
  ret void
}